; Function Attrs: nounwind uwtable
define ptr @l_Lean_Elab_ComputedFields_overrideCasesOn___lambda__1(ptr noundef %0, ptr noundef %1, ptr noundef %2, ptr readnone captures(none) %3, ptr noundef %4, ptr noundef %5, ptr noundef %6, ptr noundef %7, ptr noundef %8) local_unnamed_addr #0 {
  %10 = ptrtoint ptr %2 to i64
  %11 = and i64 %10, 1
  %.not = icmp eq i64 %11, 0
  br i1 %.not, label %12, label %lean_inc.exit

12:                                               ; preds = %9
  %.val.i = load i32, ptr %2, align 4, !tbaa !8
  %13 = icmp sgt i32 %.val.i, 0
  br i1 %13, label %14, label %16, !prof !13

14:                                               ; preds = %12
  %15 = add nuw i32 %.val.i, 1
  store i32 %15, ptr %2, align 4, !tbaa !8
  br label %lean_inc.exit

16:                                               ; preds = %12
  %.not.i31 = icmp eq i32 %.val.i, 0
  br i1 %.not.i31, label %lean_inc.exit, label %17

17:                                               ; preds = %16
  tail call void @lean_inc_ref_cold(ptr noundef nonnull %2) #4
  br label %lean_inc.exit

lean_inc.exit:                                    ; preds = %17, %16, %14, %9
  tail call void @lean_inc_heartbeat() #4
  %18 = tail call noalias ptr @mi_malloc_small(i64 noundef 24) #4
  %19 = icmp eq ptr %18, null
  br i1 %19, label %20, label %lean_alloc_ctor.exit

20:                                               ; preds = %lean_inc.exit
  tail call void @lean_internal_panic_out_of_memory() #5
  unreachable

lean_alloc_ctor.exit:                             ; preds = %lean_inc.exit
  %21 = getelementptr inbounds nuw i8, ptr %18, i64 4
  store i32 1, ptr %18, align 4, !tbaa !8
  store i32 16908312, ptr %21, align 4
  %22 = getelementptr inbounds nuw i8, ptr %18, i64 8
  store ptr %2, ptr %22, align 8, !tbaa !4
  %23 = getelementptr inbounds nuw i8, ptr %18, i64 16
  store ptr inttoptr (i64 1 to ptr), ptr %23, align 8, !tbaa !4
  %24 = tail call ptr @lean_array_mk(ptr noundef nonnull %18) #4
  %25 = tail call ptr @l_Array_append___rarg(ptr noundef %24, ptr noundef %0) #4
  tail call void @lean_inc_heartbeat() #4
  %26 = tail call noalias ptr @mi_malloc_small(i64 noundef 24) #4
  %27 = icmp eq ptr %26, null
  br i1 %27, label %28, label %lean_alloc_ctor.exit32

28:                                               ; preds = %lean_alloc_ctor.exit
  tail call void @lean_internal_panic_out_of_memory() #5
  unreachable

lean_alloc_ctor.exit32:                           ; preds = %lean_alloc_ctor.exit
  %29 = getelementptr inbounds nuw i8, ptr %26, i64 4
  store i32 1, ptr %26, align 4, !tbaa !8
  store i32 16908312, ptr %29, align 4
  %30 = getelementptr inbounds nuw i8, ptr %26, i64 8
  store ptr %1, ptr %30, align 8, !tbaa !4
  %31 = getelementptr inbounds nuw i8, ptr %26, i64 16
  store ptr inttoptr (i64 1 to ptr), ptr %31, align 8, !tbaa !4
  %32 = tail call ptr @lean_array_mk(ptr noundef nonnull %26) #4
  %33 = tail call ptr @l_Array_append___rarg(ptr noundef %25, ptr noundef %32) #4
  %34 = ptrtoint ptr %32 to i64
  %35 = and i64 %34, 1
  %.not33 = icmp eq i64 %35, 0
  br i1 %.not33, label %36, label %lean_dec.exit28

36:                                               ; preds = %lean_alloc_ctor.exit32
  %37 = load i32, ptr %32, align 4, !tbaa !8
  %38 = icmp sgt i32 %37, 1
  br i1 %38, label %39, label %41, !prof !13

39:                                               ; preds = %36
  %40 = add nsw i32 %37, -1
  store i32 %40, ptr %32, align 4, !tbaa !8
  br label %lean_dec.exit28

41:                                               ; preds = %36
  %.not.i = icmp eq i32 %37, 0
  br i1 %.not.i, label %lean_dec.exit28, label %42

42:                                               ; preds = %41
  tail call void @lean_dec_ref_cold(ptr noundef nonnull %32) #4
  br label %lean_dec.exit28

lean_dec.exit28:                                  ; preds = %42, %41, %39, %lean_alloc_ctor.exit32
  %43 = tail call ptr @l_Lean_Meta_mkLambdaFVars(ptr noundef %33, ptr noundef %2, i8 noundef zeroext 0, i8 noundef zeroext 1, i8 noundef zeroext 0, i8 noundef zeroext 1, ptr noundef %4, ptr noundef %5, ptr noundef %6, ptr noundef %7, ptr noundef %8) #4
  %44 = ptrtoint ptr %33 to i64
  %45 = and i64 %44, 1
  %.not34 = icmp eq i64 %45, 0
  br i1 %.not34, label %46, label %lean_dec.exit

46:                                               ; preds = %lean_dec.exit28
  %47 = load i32, ptr %33, align 4, !tbaa !8
  %48 = icmp sgt i32 %47, 1
  br i1 %48, label %49, label %51, !prof !13

49:                                               ; preds = %46
  %50 = add nsw i32 %47, -1
  store i32 %50, ptr %33, align 4, !tbaa !8
  br label %lean_dec.exit

51:                                               ; preds = %46
  %.not.i29 = icmp eq i32 %47, 0
  br i1 %.not.i29, label %lean_dec.exit, label %52

52:                                               ; preds = %51
  tail call void @lean_dec_ref_cold(ptr noundef nonnull %33) #4
  br label %lean_dec.exit

lean_dec.exit:                                    ; preds = %52, %51, %49, %lean_dec.exit28
  ret ptr %43
}